; Function Attrs: mustprogress uwtable
define void @_ZN6icu_756Locale22setUnicodeKeywordValueENS_11StringPieceES1_R10UErrorCode(ptr noundef nonnull align 8 dereferenceable(217) %this, ptr %keywordName.coerce0, i32 %keywordName.coerce1, ptr %keywordValue.coerce0, i32 %keywordValue.coerce1, ptr noundef nonnull align 4 dereferenceable(4) %status) local_unnamed_addr #1 align 2 personality ptr @__gxx_personality_v0 {
entry:
  %keywordName_nul = alloca %"class.icu_75::CharString", align 8
  %keywordValue_nul = alloca %"class.icu_75::CharString", align 8
  call void @_ZN6icu_7515MaybeStackArrayIcLi40EEC1Ev(ptr noundef nonnull align 8 dereferenceable(53) %keywordName_nul)
  %len.i = getelementptr inbounds i8, ptr %keywordName_nul, i64 56
  store i32 0, ptr %len.i, align 8
  %0 = load ptr, ptr %keywordName_nul, align 8
  store i8 0, ptr %0, align 1
  %call3.i1.i = invoke noundef nonnull align 8 dereferenceable(60) ptr @_ZN6icu_7510CharString6appendEPKciR10UErrorCode(ptr noundef nonnull align 8 dereferenceable(60) %keywordName_nul, ptr noundef %keywordName.coerce0, i32 noundef %keywordName.coerce1, ptr noundef nonnull align 4 dereferenceable(4) %status)
          to label %_ZN6icu_7510CharStringC2ENS_11StringPieceER10UErrorCode.exit unwind label %lpad.i

common.resume:                                    ; preds = %lpad3, %lpad.i11, %lpad, %lpad.i
  %common.resume.op = phi { ptr, i32 } [ %1, %lpad.i ], [ %6, %lpad3 ], [ %5, %lpad ], [ %3, %lpad.i11 ]
  call void @_ZN6icu_7515MaybeStackArrayIcLi40EED1Ev(ptr noundef nonnull align 8 dereferenceable(53) %keywordName_nul) #20
  resume { ptr, i32 } %common.resume.op

lpad.i:                                           ; preds = %entry
  %1 = landingpad { ptr, i32 }
          cleanup
  br label %common.resume

_ZN6icu_7510CharStringC2ENS_11StringPieceER10UErrorCode.exit: ; preds = %entry
  invoke void @_ZN6icu_7515MaybeStackArrayIcLi40EEC1Ev(ptr noundef nonnull align 8 dereferenceable(53) %keywordValue_nul)
          to label %.noexc unwind label %lpad

.noexc:                                           ; preds = %_ZN6icu_7510CharStringC2ENS_11StringPieceER10UErrorCode.exit
  %len.i9 = getelementptr inbounds i8, ptr %keywordValue_nul, i64 56
  store i32 0, ptr %len.i9, align 8
  %2 = load ptr, ptr %keywordValue_nul, align 8
  store i8 0, ptr %2, align 1
  %call3.i1.i10 = invoke noundef nonnull align 8 dereferenceable(60) ptr @_ZN6icu_7510CharString6appendEPKciR10UErrorCode(ptr noundef nonnull align 8 dereferenceable(60) %keywordValue_nul, ptr noundef %keywordValue.coerce0, i32 noundef %keywordValue.coerce1, ptr noundef nonnull align 4 dereferenceable(4) %status)
          to label %invoke.cont unwind label %lpad.i11

lpad.i11:                                         ; preds = %.noexc
  %3 = landingpad { ptr, i32 }
          cleanup
  call void @_ZN6icu_7515MaybeStackArrayIcLi40EED1Ev(ptr noundef nonnull align 8 dereferenceable(53) %keywordValue_nul) #20
  br label %common.resume

invoke.cont:                                      ; preds = %.noexc
  %4 = load i32, ptr %status, align 4
  %cmp.i = icmp slt i32 %4, 1
  br i1 %cmp.i, label %if.end, label %cleanup

lpad:                                             ; preds = %_ZN6icu_7510CharStringC2ENS_11StringPieceER10UErrorCode.exit
  %5 = landingpad { ptr, i32 }
          cleanup
  br label %common.resume

lpad3:                                            ; preds = %if.end24, %if.then14, %if.end
  %6 = landingpad { ptr, i32 }
          cleanup
  call void @_ZN6icu_7515MaybeStackArrayIcLi40EED1Ev(ptr noundef nonnull align 8 dereferenceable(53) %keywordValue_nul) #20
  br label %common.resume

if.end:                                           ; preds = %invoke.cont
  %7 = load ptr, ptr %keywordName_nul, align 8
  %call8 = invoke ptr @uloc_toLegacyKey_75(ptr noundef %7)
          to label %invoke.cont7 unwind label %lpad3

invoke.cont7:                                     ; preds = %if.end
  %cmp = icmp eq ptr %call8, null
  br i1 %cmp, label %cleanup.sink.split, label %if.end10

if.end10:                                         ; preds = %invoke.cont7
  %8 = load i32, ptr %len.i9, align 8
  %cmp.i14.not = icmp eq i32 %8, 0
  br i1 %cmp.i14.not, label %if.end24, label %if.then14

if.then14:                                        ; preds = %if.end10
  %9 = load ptr, ptr %keywordName_nul, align 8
  %10 = load ptr, ptr %keywordValue_nul, align 8
  %call20 = invoke ptr @uloc_toLegacyType_75(ptr noundef %9, ptr noundef %10)
          to label %invoke.cont19 unwind label %lpad3

invoke.cont19:                                    ; preds = %if.then14
  %cmp21 = icmp eq ptr %call20, null
  br i1 %cmp21, label %cleanup.sink.split, label %if.end24

if.end24:                                         ; preds = %invoke.cont19, %if.end10
  %legacy_value.0 = phi ptr [ null, %if.end10 ], [ %call20, %invoke.cont19 ]
  invoke void @_ZN6icu_756Locale15setKeywordValueEPKcS2_R10UErrorCode(ptr noundef nonnull align 8 dereferenceable(217) %this, ptr noundef nonnull %call8, ptr noundef %legacy_value.0, ptr noundef nonnull align 4 dereferenceable(4) %status)
          to label %cleanup unwind label %lpad3

cleanup.sink.split:                               ; preds = %invoke.cont19, %invoke.cont7
  store i32 1, ptr %status, align 4
  br label %cleanup

cleanup:                                          ; preds = %cleanup.sink.split, %if.end24, %invoke.cont
  call void @_ZN6icu_7515MaybeStackArrayIcLi40EED1Ev(ptr noundef nonnull align 8 dereferenceable(53) %keywordValue_nul) #20
  call void @_ZN6icu_7515MaybeStackArrayIcLi40EED1Ev(ptr noundef nonnull align 8 dereferenceable(53) %keywordName_nul) #20
  ret void
}